; ModuleID = '7/1095.c'
source_filename = "7/1095.c"
target datalayout = "e-m:e-p270:32:32-p271:32:32-p272:64:64-i64:64-f80:128-n8:16:32:64-S128"
target triple = "x86_64-pc-linux-gnu"

@.str = private unnamed_addr constant [3 x i8] c"%s\00", align 1

; Function Attrs: noinline nounwind uwtable
define dso_local i32 @main() #0 {
  %1 = alloca i32, align 4
  %2 = alloca [257 x i8], align 16
  %3 = alloca [257 x i8], align 16
  %4 = alloca [257 x i8], align 16
  %5 = alloca i32, align 4
  %6 = alloca i32, align 4
  %7 = alloca i32, align 4
  %8 = alloca i32, align 4
  %9 = alloca i32, align 4
  %10 = alloca i32, align 4
  store i32 0, i32* %1, align 4
  %11 = getelementptr inbounds [257 x i8], [257 x i8]* %2, i64 0, i64 0
  %12 = call i32 (i8*, ...) @__isoc99_scanf(i8* getelementptr inbounds ([3 x i8], [3 x i8]* @.str, i64 0, i64 0), i8* %11)
  %13 = getelementptr inbounds [257 x i8], [257 x i8]* %3, i64 0, i64 0
  %14 = call i32 (i8*, ...) @__isoc99_scanf(i8* getelementptr inbounds ([3 x i8], [3 x i8]* @.str, i64 0, i64 0), i8* %13)
  %15 = getelementptr inbounds [257 x i8], [257 x i8]* %4, i64 0, i64 0
  %16 = call i32 (i8*, ...) @__isoc99_scanf(i8* getelementptr inbounds ([3 x i8], [3 x i8]* @.str, i64 0, i64 0), i8* %15)
  store i32 0, i32* %9, align 4
  %17 = getelementptr inbounds [257 x i8], [257 x i8]* %4, i64 0, i64 0
  %18 = call i64 @strlen(i8* %17) #3
  %19 = trunc i64 %18 to i32
  store i32 %19, i32* %10, align 4
  %20 = getelementptr inbounds [257 x i8], [257 x i8]* %2, i64 0, i64 0
  %21 = call i64 @strlen(i8* %20) #3
  %22 = trunc i64 %21 to i32
  store i32 %22, i32* %5, align 4
  %23 = getelementptr inbounds [257 x i8], [257 x i8]* %3, i64 0, i64 0
  %24 = call i64 @strlen(i8* %23) #3
  %25 = trunc i64 %24 to i32
  store i32 %25, i32* %8, align 4
  store i32 0, i32* %6, align 4
  br label %26

26:                                               ; preds = %96, %0
  %27 = load i32, i32* %6, align 4
  %28 = load i32, i32* %5, align 4
  %29 = icmp slt i32 %27, %28
  br i1 %29, label %30, label %99

30:                                               ; preds = %26
  %31 = load i32, i32* %6, align 4
  %32 = sext i32 %31 to i64
  %33 = getelementptr inbounds [257 x i8], [257 x i8]* %2, i64 0, i64 %32
  %34 = load i8, i8* %33, align 1
  %35 = sext i8 %34 to i32
  %36 = getelementptr inbounds [257 x i8], [257 x i8]* %3, i64 0, i64 0
  %37 = load i8, i8* %36, align 16
  %38 = sext i8 %37 to i32
  %39 = icmp eq i32 %35, %38
  br i1 %39, label %40, label %95

40:                                               ; preds = %30
  store i32 1, i32* %7, align 4
  br label %41

41:                                               ; preds = %64, %40
  %42 = load i32, i32* %7, align 4
  %43 = load i32, i32* %8, align 4
  %44 = icmp slt i32 %42, %43
  br i1 %44, label %45, label %67

45:                                               ; preds = %41
  %46 = load i32, i32* %6, align 4
  %47 = load i32, i32* %7, align 4
  %48 = add nsw i32 %46, %47
  %49 = sext i32 %48 to i64
  %50 = getelementptr inbounds [257 x i8], [257 x i8]* %2, i64 0, i64 %49
  %51 = load i8, i8* %50, align 1
  %52 = sext i8 %51 to i32
  %53 = load i32, i32* %7, align 4
  %54 = sext i32 %53 to i64
  %55 = getelementptr inbounds [257 x i8], [257 x i8]* %3, i64 0, i64 %54
  %56 = load i8, i8* %55, align 1
  %57 = sext i8 %56 to i32
  %58 = icmp eq i32 %52, %57
  br i1 %58, label %59, label %62

59:                                               ; preds = %45
  %60 = load i32, i32* %9, align 4
  %61 = add nsw i32 %60, 1
  store i32 %61, i32* %9, align 4
  br label %63

62:                                               ; preds = %45
  store i32 0, i32* %9, align 4
  br label %67

63:                                               ; preds = %59
  br label %64

64:                                               ; preds = %63
  %65 = load i32, i32* %7, align 4
  %66 = add nsw i32 %65, 1
  store i32 %66, i32* %7, align 4
  br label %41

67:                                               ; preds = %62, %41
  %68 = load i32, i32* %9, align 4
  %69 = load i32, i32* %8, align 4
  %70 = sub nsw i32 %69, 1
  %71 = icmp eq i32 %68, %70
  br i1 %71, label %72, label %94

72:                                               ; preds = %67
  %73 = load i32, i32* %6, align 4
  store i32 %73, i32* %7, align 4
  br label %74

74:                                               ; preds = %90, %72
  %75 = load i32, i32* %7, align 4
  %76 = load i32, i32* %6, align 4
  %77 = load i32, i32* %10, align 4
  %78 = add nsw i32 %76, %77
  %79 = icmp slt i32 %75, %78
  br i1 %79, label %80, label %93

80:                                               ; preds = %74
  %81 = load i32, i32* %7, align 4
  %82 = load i32, i32* %6, align 4
  %83 = sub nsw i32 %81, %82
  %84 = sext i32 %83 to i64
  %85 = getelementptr inbounds [257 x i8], [257 x i8]* %4, i64 0, i64 %84
  %86 = load i8, i8* %85, align 1
  %87 = load i32, i32* %7, align 4
  %88 = sext i32 %87 to i64
  %89 = getelementptr inbounds [257 x i8], [257 x i8]* %2, i64 0, i64 %88
  store i8 %86, i8* %89, align 1
  br label %90

90:                                               ; preds = %80
  %91 = load i32, i32* %7, align 4
  %92 = add nsw i32 %91, 1
  store i32 %92, i32* %7, align 4
  br label %74

93:                                               ; preds = %74
  br label %99

94:                                               ; preds = %67
  br label %95

95:                                               ; preds = %94, %30
  br label %96

96:                                               ; preds = %95
  %97 = load i32, i32* %6, align 4
  %98 = add nsw i32 %97, 1
  store i32 %98, i32* %6, align 4
  br label %26

99:                                               ; preds = %93, %26
  %100 = getelementptr inbounds [257 x i8], [257 x i8]* %2, i64 0, i64 0
  %101 = call i32 (i8*, ...) @printf(i8* getelementptr inbounds ([3 x i8], [3 x i8]* @.str, i64 0, i64 0), i8* %100)
  ret i32 0
}

declare dso_local i32 @__isoc99_scanf(i8*, ...) #1

; Function Attrs: nounwind readonly
declare dso_local i64 @strlen(i8*) #2

declare dso_local i32 @printf(i8*, ...) #1


!llvm.module.flags = !{!0}
!llvm.ident = !{!1}

!0 = !{i32 1, !"wchar_size", i32 4}
!1 = !{!"clang version 10.0.0-4ubuntu1 "}
